; Function Attrs: nounwind sspstrong uwtable
define internal i64 @rb_process_status_waitv(i32 noundef %0, ptr noundef readonly captures(none) %1, i64 %2) #1 {
  %or.cond = icmp ugt i32 %0, 2
  br i1 %or.cond, label %4, label %rb_check_arity.exit

4:                                                ; preds = %3
  tail call void @rb_error_arity(i32 noundef %0, i32 noundef 0, i32 noundef 2) #29
  unreachable

rb_check_arity.exit:                              ; preds = %3
  %.not = icmp eq i32 %0, 0
  br i1 %.not, label %.thread, label %5

5:                                                ; preds = %rb_check_arity.exit
  %6 = load i64, ptr %1, align 8, !tbaa !43
  %7 = and i64 %6, 1
  %.not.i = icmp eq i64 %7, 0
  br i1 %.not.i, label %10, label %8

8:                                                ; preds = %5
  %9 = tail call i64 @rb_fix2int(i64 noundef %6) #27
  br label %12

10:                                               ; preds = %5
  %11 = tail call i64 @rb_num2int(i64 noundef %6) #27
  br label %12

12:                                               ; preds = %10, %8
  %.0.i = phi i64 [ %9, %8 ], [ %11, %10 ]
  %13 = trunc i64 %.0.i to i32
  %14 = icmp eq i32 %0, 2
  br i1 %14, label %15, label %.thread

15:                                               ; preds = %12
  %16 = getelementptr i8, ptr %1, i64 8
  %17 = load i64, ptr %16, align 8, !tbaa !43
  %18 = and i64 %17, 1
  %.not.i7 = icmp eq i64 %18, 0
  br i1 %.not.i7, label %21, label %19

19:                                               ; preds = %15
  %20 = tail call i64 @rb_fix2int(i64 noundef %17) #27
  br label %rb_num2int_inline.exit9

21:                                               ; preds = %15
  %22 = tail call i64 @rb_num2int(i64 noundef %17) #27
  br label %rb_num2int_inline.exit9

rb_num2int_inline.exit9:                          ; preds = %19, %21
  %.0.i8 = phi i64 [ %20, %19 ], [ %22, %21 ]
  %23 = trunc i64 %.0.i8 to i32
  br label %.thread

.thread:                                          ; preds = %rb_check_arity.exit, %rb_num2int_inline.exit9, %12
  %.0611 = phi i32 [ %13, %rb_num2int_inline.exit9 ], [ %13, %12 ], [ -1, %rb_check_arity.exit ]
  %.0 = phi i32 [ %23, %rb_num2int_inline.exit9 ], [ 0, %12 ], [ 0, %rb_check_arity.exit ]
  %24 = tail call i64 @rb_process_status_wait(i32 noundef %.0611, i32 noundef %.0)
  ret i64 %24
}